; Function Attrs: null_pointer_is_valid sspstrong uwtable
define internal void @dissect_gtpv2_fqdn(ptr noundef %0, ptr noundef readonly captures(none) %1, ptr noundef %2, ptr noundef %3, i16 noundef zeroext %4, i8 zeroext %5, i8 zeroext %6, ptr readnone captures(none) %7) #1 {
  %9 = alloca ptr, align 8
  call void @llvm.lifetime.start.p0(i64 8, ptr nonnull %9) #12
  store ptr null, ptr %9, align 8
  %.not.i = icmp eq i16 %4, 0
  br i1 %.not.i, label %decode_gtpv2_fqdn.exit, label %10

10:                                               ; preds = %8
  %11 = zext i16 %4 to i32
  %12 = tail call zeroext i8 @tvb_get_uint8(ptr noundef %0, i32 noundef 0)
  %13 = icmp ult i8 %12, 64
  %14 = load i32, ptr @hf_gtpv2_fqdn, align 4
  %15 = getelementptr inbounds nuw i8, ptr %1, i64 408
  %16 = load ptr, ptr %15, align 8
  %..i = select i1 %13, i32 84, i32 0
  %17 = call ptr @proto_tree_add_item_ret_string(ptr noundef %2, i32 noundef %14, ptr noundef %0, i32 noundef 0, i32 noundef %11, i32 noundef %..i, ptr noundef %16, ptr noundef nonnull %9)
  %18 = load ptr, ptr %9, align 8
  call void (ptr, ptr, ...) @proto_item_append_text(ptr noundef %3, ptr noundef nonnull @.str.1, ptr noundef %18)
  br label %decode_gtpv2_fqdn.exit

decode_gtpv2_fqdn.exit:                           ; preds = %8, %10
  call void @llvm.lifetime.end.p0(i64 8, ptr nonnull %9) #12
  ret void
}